; Function Attrs: null_pointer_is_valid sspstrong uwtable
define internal i32 @dissect_text_lines(ptr noundef %0, ptr noundef %1, ptr noundef %2, ptr noundef readonly captures(address_is_null) %3) #0 {
  %5 = alloca i32, align 4
  call void @llvm.lifetime.start.p0(i64 4, ptr nonnull %5) #3
  %6 = tail call i32 @tvb_captured_length(ptr noundef %0)
  %7 = icmp sgt i32 %6, 38
  br i1 %7, label %8, label %14

8:                                                ; preds = %4
  %9 = tail call i32 @tvb_strncaseeql(ptr noundef %0, i32 noundef 0, ptr noundef nonnull @.str.22, i64 noundef 5)
  %10 = icmp eq i32 %9, 0
  br i1 %10, label %11, label %14

11:                                               ; preds = %8
  %12 = load ptr, ptr @xml_handle, align 8
  %13 = tail call i32 @call_dissector(ptr noundef %12, ptr noundef %0, ptr noundef %1, ptr noundef %2)
  br label %48

14:                                               ; preds = %8, %4
  %15 = getelementptr inbounds nuw i8, ptr %1, i64 296
  %16 = load ptr, ptr %15, align 8
  %.not = icmp eq ptr %16, null
  br i1 %.not, label %19, label %17

17:                                               ; preds = %14
  %18 = load i8, ptr %16, align 1
  %.not45 = icmp eq i8 %18, 0
  br i1 %.not45, label %19, label %.thread54

19:                                               ; preds = %17, %14
  %20 = icmp eq ptr %3, null
  br i1 %20, label %.thread, label %21

21:                                               ; preds = %19
  %22 = getelementptr inbounds nuw i8, ptr %3, i64 8
  %23 = load ptr, ptr %22, align 8
  %.not46 = icmp eq ptr %23, null
  br i1 %.not46, label %.thread, label %24

24:                                               ; preds = %21
  %25 = load i8, ptr %23, align 1
  %.not47 = icmp eq i8 %25, 0
  br i1 %.not47, label %.thread, label %.thread54

.thread:                                          ; preds = %21, %24, %19
  %.not49 = icmp eq ptr %2, null
  br i1 %.not49, label %48, label %28

.thread54:                                        ; preds = %24, %17
  %.039 = phi ptr [ %16, %17 ], [ %23, %24 ]
  %26 = getelementptr inbounds nuw i8, ptr %1, i64 8
  %27 = load ptr, ptr %26, align 8
  tail call void (ptr, i32, ptr, ptr, ...) @col_append_sep_fstr(ptr noundef %27, i32 noundef 25, ptr noundef nonnull @.str.23, ptr noundef nonnull @.str.24, ptr noundef nonnull %.039)
  %.not4957 = icmp eq ptr %2, null
  br i1 %.not4957, label %48, label %31

28:                                               ; preds = %.thread
  %29 = load i32, ptr @proto_text_lines, align 4
  %30 = tail call ptr @proto_tree_add_item(ptr noundef nonnull %2, i32 noundef %29, ptr noundef %0, i32 noundef 0, i32 noundef -1, i32 noundef 0)
  br label %34

31:                                               ; preds = %.thread54
  %32 = load i32, ptr @proto_text_lines, align 4
  %33 = tail call ptr @proto_tree_add_item(ptr noundef nonnull %2, i32 noundef %32, ptr noundef %0, i32 noundef 0, i32 noundef -1, i32 noundef 0)
  tail call void (ptr, ptr, ...) @proto_item_append_text(ptr noundef %33, ptr noundef nonnull @.str.25, ptr noundef nonnull %.039)
  br label %34

34:                                               ; preds = %28, %31
  %35 = phi ptr [ %33, %31 ], [ %30, %28 ]
  %36 = load i32, ptr @ett_text_lines, align 4
  %37 = tail call ptr @proto_item_add_subtree(ptr noundef %35, i32 noundef %36)
  %38 = tail call zeroext i1 @tvb_offset_exists(ptr noundef %0, i32 noundef 0)
  br i1 %38, label %.lr.ph, label %._crit_edge

.lr.ph:                                           ; preds = %34, %41
  %.065 = phi i32 [ %45, %41 ], [ 0, %34 ]
  %.04064 = phi i32 [ %46, %41 ], [ 0, %34 ]
  %39 = call i32 @tvb_find_line_end(ptr noundef %0, i32 noundef %.04064, i32 noundef -1, ptr noundef nonnull %5, i1 noundef zeroext false)
  %40 = icmp eq i32 %39, -1
  br i1 %40, label %._crit_edge, label %41

41:                                               ; preds = %.lr.ph
  %42 = load i32, ptr %5, align 4
  %43 = sub i32 %42, %.04064
  %44 = call ptr @proto_tree_add_format_text(ptr noundef %37, ptr noundef %0, i32 noundef %.04064, i32 noundef %43)
  %45 = add i32 %.065, 1
  %46 = load i32, ptr %5, align 4
  %47 = call zeroext i1 @tvb_offset_exists(ptr noundef %0, i32 noundef %46)
  br i1 %47, label %.lr.ph, label %._crit_edge, !llvm.loop !6

._crit_edge:                                      ; preds = %41, %.lr.ph, %34
  %.0.lcssa = phi i32 [ 0, %34 ], [ %.065, %.lr.ph ], [ %45, %41 ]
  call void (ptr, ptr, ...) @proto_item_append_text(ptr noundef %37, ptr noundef nonnull @.str.26, i32 noundef %.0.lcssa)
  br label %48

48:                                               ; preds = %.thread54, %.thread, %._crit_edge, %11
  call void @llvm.lifetime.end.p0(i64 4, ptr nonnull %5) #3
  ret i32 %6
}